target datalayout = "e-m:e-p270:32:32-p271:32:32-p272:64:64-i64:64-i128:128-f80:128-n8:16:32:64-S128"
target triple = "x86_64-pc-linux-gnu"

%struct.FFTXCodeletOptions = type { i32 }
%struct.AVTXContext = type { i32, i32, ptr, ptr, ptr, ptr, [4 x ptr], i32, [4 x ptr], ptr, i32, i64, i32, float, double, ptr }

; Function Attrs: cold nounwind optsize uwtable
define internal i32 @ff_tx_mdct_init_float_c(ptr noundef %0, ptr noundef %1, i64 noundef %2, ptr noundef %3, i32 noundef %4, i32 noundef %5, ptr noundef %6) #0 {
  %8 = alloca i32, align 4
  %9 = alloca ptr, align 8
  %10 = alloca ptr, align 8
  %11 = alloca i64, align 8
  %12 = alloca ptr, align 8
  %13 = alloca i32, align 4
  %14 = alloca i32, align 4
  %15 = alloca ptr, align 8
  %16 = alloca i32, align 4
  %17 = alloca %struct.FFTXCodeletOptions, align 4
  %18 = alloca i32, align 4
  %19 = alloca i32, align 4
  %20 = alloca i32, align 4
  store ptr %0, ptr %9, align 8, !tbaa !17
  store ptr %1, ptr %10, align 8, !tbaa !61
  store i64 %2, ptr %11, align 8, !tbaa !30
  store ptr %3, ptr %12, align 8, !tbaa !62
  store i32 %4, ptr %13, align 4, !tbaa !4
  store i32 %5, ptr %14, align 4, !tbaa !4
  store ptr %6, ptr %15, align 8, !tbaa !8
  call void @llvm.lifetime.start.p0(i64 4, ptr %16) #10
  call void @llvm.lifetime.start.p0(i64 4, ptr %17) #10
  %21 = getelementptr inbounds nuw %struct.FFTXCodeletOptions, ptr %17, i32 0, i32 0
  %22 = load i32, ptr %14, align 4, !tbaa !4
  %23 = icmp ne i32 %22, 0
  %24 = xor i1 %23, true
  %25 = select i1 %24, i32 2, i32 1
  store i32 %25, ptr %21, align 4, !tbaa !71
  %26 = load ptr, ptr %15, align 8, !tbaa !8
  %27 = load float, ptr %26, align 4, !tbaa !36
  %28 = fpext nsz float %27 to double
  %29 = load ptr, ptr %9, align 8, !tbaa !17
  %30 = getelementptr inbounds nuw %struct.AVTXContext, ptr %29, i32 0, i32 14
  store double %28, ptr %30, align 8, !tbaa !28
  %31 = load ptr, ptr %9, align 8, !tbaa !17
  %32 = getelementptr inbounds nuw %struct.AVTXContext, ptr %31, i32 0, i32 14
  %33 = load double, ptr %32, align 8, !tbaa !28
  %34 = fptrunc nsz double %33 to float
  %35 = load ptr, ptr %9, align 8, !tbaa !17
  %36 = getelementptr inbounds nuw %struct.AVTXContext, ptr %35, i32 0, i32 13
  store float %34, ptr %36, align 4, !tbaa !94
  %37 = load i64, ptr %11, align 8, !tbaa !30
  %38 = and i64 %37, 9223372036854775807
  store i64 %38, ptr %11, align 8, !tbaa !30
  %39 = load i64, ptr %11, align 8, !tbaa !30
  %40 = or i64 %39, 1
  store i64 %40, ptr %11, align 8, !tbaa !30
  %41 = load i64, ptr %11, align 8, !tbaa !30
  %42 = or i64 %41, 2305843009213693952
  store i64 %42, ptr %11, align 8, !tbaa !30
  %43 = load ptr, ptr %9, align 8, !tbaa !17
  %44 = load i64, ptr %11, align 8, !tbaa !30
  %45 = load i32, ptr %13, align 4, !tbaa !4
  %46 = ashr i32 %45, 1
  %47 = load i32, ptr %14, align 4, !tbaa !4
  %48 = load ptr, ptr %15, align 8, !tbaa !8
  %49 = call i32 @ff_tx_init_subtx(ptr noundef %43, i32 noundef 0, i64 noundef %44, ptr noundef %17, i32 noundef %46, i32 noundef %47, ptr noundef %48)
  store i32 %49, ptr %16, align 4, !tbaa !4
  %50 = icmp ne i32 %49, 0
  br i1 %50, label %51, label %65

51:                                               ; preds = %7
  %52 = load i64, ptr %11, align 8, !tbaa !30
  %53 = and i64 %52, -2305843009213693953
  store i64 %53, ptr %11, align 8, !tbaa !30
  %54 = load ptr, ptr %9, align 8, !tbaa !17
  %55 = load i64, ptr %11, align 8, !tbaa !30
  %56 = load i32, ptr %13, align 4, !tbaa !4
  %57 = ashr i32 %56, 1
  %58 = load i32, ptr %14, align 4, !tbaa !4
  %59 = load ptr, ptr %15, align 8, !tbaa !8
  %60 = call i32 @ff_tx_init_subtx(ptr noundef %54, i32 noundef 0, i64 noundef %55, ptr noundef %17, i32 noundef %57, i32 noundef %58, ptr noundef %59)
  store i32 %60, ptr %16, align 4, !tbaa !4
  %61 = icmp ne i32 %60, 0
  br i1 %61, label %62, label %64

62:                                               ; preds = %51
  %63 = load i32, ptr %16, align 4, !tbaa !4
  store i32 %63, ptr %8, align 4
  store i32 1, ptr %18, align 4
  br label %160

64:                                               ; preds = %51
  br label %65

65:                                               ; preds = %64, %7
  %66 = load i32, ptr %13, align 4, !tbaa !4
  %67 = ashr i32 %66, 1
  %68 = sext i32 %67 to i64
  %69 = mul i64 %68, 4
  %70 = call noalias ptr @av_malloc(i64 noundef %69)
  %71 = load ptr, ptr %9, align 8, !tbaa !17
  %72 = getelementptr inbounds nuw %struct.AVTXContext, ptr %71, i32 0, i32 2
  store ptr %70, ptr %72, align 8, !tbaa !69
  %73 = load ptr, ptr %9, align 8, !tbaa !17
  %74 = getelementptr inbounds nuw %struct.AVTXContext, ptr %73, i32 0, i32 2
  %75 = load ptr, ptr %74, align 8, !tbaa !69
  %76 = icmp ne ptr %75, null
  br i1 %76, label %78, label %77

77:                                               ; preds = %65
  store i32 -12, ptr %8, align 4
  store i32 1, ptr %18, align 4
  br label %160

78:                                               ; preds = %65
  %79 = load ptr, ptr %9, align 8, !tbaa !17
  %80 = getelementptr inbounds nuw %struct.AVTXContext, ptr %79, i32 0, i32 5
  %81 = load ptr, ptr %80, align 8, !tbaa !68
  %82 = getelementptr inbounds %struct.AVTXContext, ptr %81, i64 0
  %83 = getelementptr inbounds nuw %struct.AVTXContext, ptr %82, i32 0, i32 11
  %84 = load i64, ptr %83, align 8, !tbaa !66
  %85 = and i64 %84, 2305843009213693952
  %86 = icmp ne i64 %85, 0
  br i1 %86, label %87, label %100

87:                                               ; preds = %78
  %88 = load ptr, ptr %9, align 8, !tbaa !17
  %89 = getelementptr inbounds nuw %struct.AVTXContext, ptr %88, i32 0, i32 2
  %90 = load ptr, ptr %89, align 8, !tbaa !69
  %91 = load ptr, ptr %9, align 8, !tbaa !17
  %92 = getelementptr inbounds nuw %struct.AVTXContext, ptr %91, i32 0, i32 5
  %93 = load ptr, ptr %92, align 8, !tbaa !68
  %94 = getelementptr inbounds nuw %struct.AVTXContext, ptr %93, i32 0, i32 2
  %95 = load ptr, ptr %94, align 8, !tbaa !69
  %96 = load i32, ptr %13, align 4, !tbaa !4
  %97 = ashr i32 %96, 1
  %98 = sext i32 %97 to i64
  %99 = mul i64 %98, 4
  call void @llvm.memcpy.p0.p0.i64(ptr align 4 %90, ptr align 4 %95, i64 %99, i1 false)
  br label %119

100:                                              ; preds = %78
  call void @llvm.lifetime.start.p0(i64 4, ptr %19) #10
  store i32 0, ptr %19, align 4, !tbaa !4
  br label %101

101:                                              ; preds = %115, %100
  %102 = load i32, ptr %19, align 4, !tbaa !4
  %103 = load i32, ptr %13, align 4, !tbaa !4
  %104 = ashr i32 %103, 1
  %105 = icmp slt i32 %102, %104
  br i1 %105, label %107, label %106

106:                                              ; preds = %101
  store i32 2, ptr %18, align 4
  call void @llvm.lifetime.end.p0(i64 4, ptr %19) #10
  br label %118

107:                                              ; preds = %101
  %108 = load i32, ptr %19, align 4, !tbaa !4
  %109 = load ptr, ptr %9, align 8, !tbaa !17
  %110 = getelementptr inbounds nuw %struct.AVTXContext, ptr %109, i32 0, i32 2
  %111 = load ptr, ptr %110, align 8, !tbaa !69
  %112 = load i32, ptr %19, align 4, !tbaa !4
  %113 = sext i32 %112 to i64
  %114 = getelementptr inbounds i32, ptr %111, i64 %113
  store i32 %108, ptr %114, align 4, !tbaa !4
  br label %115

115:                                              ; preds = %107
  %116 = load i32, ptr %19, align 4, !tbaa !4
  %117 = add nsw i32 %116, 1
  store i32 %117, ptr %19, align 4, !tbaa !4
  br label %101, !llvm.loop !95

118:                                              ; preds = %106
  br label %119

119:                                              ; preds = %118, %87
  %120 = load ptr, ptr %9, align 8, !tbaa !17
  %121 = load i32, ptr %14, align 4, !tbaa !4
  %122 = icmp ne i32 %121, 0
  br i1 %122, label %123, label %127

123:                                              ; preds = %119
  %124 = load ptr, ptr %9, align 8, !tbaa !17
  %125 = getelementptr inbounds nuw %struct.AVTXContext, ptr %124, i32 0, i32 2
  %126 = load ptr, ptr %125, align 8, !tbaa !69
  br label %128

127:                                              ; preds = %119
  br label %128

128:                                              ; preds = %127, %123
  %129 = phi ptr [ %126, %123 ], [ null, %127 ]
  %130 = call i32 @ff_tx_mdct_gen_exp_float(ptr noundef %120, ptr noundef %129)
  store i32 %130, ptr %16, align 4, !tbaa !4
  %131 = icmp ne i32 %130, 0
  br i1 %131, label %132, label %134

132:                                              ; preds = %128
  %133 = load i32, ptr %16, align 4, !tbaa !4
  store i32 %133, ptr %8, align 4
  store i32 1, ptr %18, align 4
  br label %160

134:                                              ; preds = %128
  %135 = load i32, ptr %14, align 4, !tbaa !4
  %136 = icmp ne i32 %135, 0
  br i1 %136, label %137, label %159

137:                                              ; preds = %134
  call void @llvm.lifetime.start.p0(i64 4, ptr %20) #10
  store i32 0, ptr %20, align 4, !tbaa !4
  br label %138

138:                                              ; preds = %155, %137
  %139 = load i32, ptr %20, align 4, !tbaa !4
  %140 = load ptr, ptr %9, align 8, !tbaa !17
  %141 = getelementptr inbounds nuw %struct.AVTXContext, ptr %140, i32 0, i32 0
  %142 = load i32, ptr %141, align 8, !tbaa !21
  %143 = ashr i32 %142, 1
  %144 = icmp slt i32 %139, %143
  br i1 %144, label %146, label %145

145:                                              ; preds = %138
  store i32 5, ptr %18, align 4
  call void @llvm.lifetime.end.p0(i64 4, ptr %20) #10
  br label %158

146:                                              ; preds = %138
  %147 = load ptr, ptr %9, align 8, !tbaa !17
  %148 = getelementptr inbounds nuw %struct.AVTXContext, ptr %147, i32 0, i32 2
  %149 = load ptr, ptr %148, align 8, !tbaa !69
  %150 = load i32, ptr %20, align 4, !tbaa !4
  %151 = sext i32 %150 to i64
  %152 = getelementptr inbounds i32, ptr %149, i64 %151
  %153 = load i32, ptr %152, align 4, !tbaa !4
  %154 = shl i32 %153, 1
  store i32 %154, ptr %152, align 4, !tbaa !4
  br label %155

155:                                              ; preds = %146
  %156 = load i32, ptr %20, align 4, !tbaa !4
  %157 = add nsw i32 %156, 1
  store i32 %157, ptr %20, align 4, !tbaa !4
  br label %138, !llvm.loop !96

158:                                              ; preds = %145
  br label %159

159:                                              ; preds = %158, %134
  store i32 0, ptr %8, align 4
  store i32 1, ptr %18, align 4
  br label %160

160:                                              ; preds = %159, %132, %77, %62
  call void @llvm.lifetime.end.p0(i64 4, ptr %17) #10
  call void @llvm.lifetime.end.p0(i64 4, ptr %16) #10
  %161 = load i32, ptr %8, align 4
  ret i32 %161
}